target datalayout = "e-m:e-p270:32:32-p271:32:32-p272:64:64-i64:64-i128:128-f80:128-n8:16:32:64-S128"
target triple = "x86_64-pc-linux-gnu"

%struct.WOLFSSL = type <{ ptr, ptr, ptr, ptr, [48 x i8], [48 x i8], ptr, ptr, ptr, ptr, ptr, ptr, ptr, ptr, ptr, ptr, ptr, ptr, ptr, i32, [4 x i8], %struct.WOLFSSL_CIPHER, ptr, %struct.Ciphers, %struct.Ciphers, [8 x i8], %struct.Buffers, ptr, ptr, %struct.WOLFSSL_ALERT_HISTORY, %struct.WOLFSSL_ALERT, i32, i32, i32, i32, i32, i32, i32, i16, [2 x i8], i32, i8, %struct.RecordLayerHeader, %struct.MsgsReceived, %struct.ProtocolVersion, %struct.ProtocolVersion, %struct.CipherSpecs, [2 x i8], %struct.Keys, %struct.Options, ptr, i8, i8, i16, [10 x i16], i8, i8, i16, i16, [38 x i8], i32, i32, [4 x i8], ptr, i8, i8, [6 x i8], ptr, ptr, i16, i8, i8, i32, i8, [3 x i8], i32, %struct.OneTimeAuth, ptr }>
%struct.WOLFSSL_CIPHER = type { i8, i8, ptr }
%struct.Ciphers = type { ptr, ptr, ptr, ptr, i8, i8 }
%struct.Buffers = type { %struct.bufferStatic, %struct.bufferStatic, %struct.WOLFSSL_BUFFER_INFO, %struct.WOLFSSL_BUFFER_INFO, %struct.WOLFSSL_BUFFER_INFO, %struct.WOLFSSL_BUFFER_INFO, i32, i32, i8, i8, i8, i8, %struct.WOLFSSL_BUFFER_INFO, %struct.WOLFSSL_BUFFER_INFO, %struct.WOLFSSL_BUFFER_INFO, %struct.WOLFSSL_BUFFER_INFO, ptr, ptr, ptr, i8, i8, i32, i32, ptr, i32, [1 x ptr] }
%struct.bufferStatic = type { [5 x i8], ptr, i32, i32, i32, i8, i8 }
%struct.WOLFSSL_BUFFER_INFO = type { ptr, i32 }
%struct.WOLFSSL_ALERT_HISTORY = type { %struct.WOLFSSL_ALERT, %struct.WOLFSSL_ALERT }
%struct.WOLFSSL_ALERT = type { i32, i32 }
%struct.RecordLayerHeader = type { i8, i8, i8, [2 x i8] }
%struct.MsgsReceived = type { i32 }
%struct.ProtocolVersion = type { i8, i8 }
%struct.CipherSpecs = type { i16, i16, i16, i16, i8, i8, i8, i8, i8, i8, i8, i8 }
%struct.Keys = type { [64 x i8], [64 x i8], [32 x i8], [32 x i8], [16 x i8], [16 x i8], [8 x i8], [12 x i8], [12 x i8], i32, i32, i32, i32, i32, i32, i8, i8, i8, i8 }
%struct.Options = type { i64, i64, i8, i8, i8, i8, i8, i8, i8, i8, i8, i8, i8, i8, i8, i8, i8, i8, i8, i8, i8, i8, i8, i16, i16, i16, i16, i16, i8 }
%struct.OneTimeAuth = type { ptr, i8 }
%struct.HandShakeHeader = type { i8, [3 x i8] }

; Function Attrs: inlinehint nounwind uwtable
define internal void @c32to24(i32 noundef %0, ptr noundef %1) #4 {
  %3 = alloca i32, align 4
  %4 = alloca ptr, align 8
  store i32 %0, ptr %3, align 4, !tbaa !10
  store ptr %1, ptr %4, align 8, !tbaa !8
  %5 = load i32, ptr %3, align 4, !tbaa !10
  %6 = lshr i32 %5, 16
  %7 = and i32 %6, 255
  %8 = trunc i32 %7 to i8
  %9 = load ptr, ptr %4, align 8, !tbaa !8
  %10 = getelementptr inbounds i8, ptr %9, i64 0
  store i8 %8, ptr %10, align 1, !tbaa !58
  %11 = load i32, ptr %3, align 4, !tbaa !10
  %12 = lshr i32 %11, 8
  %13 = and i32 %12, 255
  %14 = trunc i32 %13 to i8
  %15 = load ptr, ptr %4, align 8, !tbaa !8
  %16 = getelementptr inbounds i8, ptr %15, i64 1
  store i8 %14, ptr %16, align 1, !tbaa !58
  %17 = load i32, ptr %3, align 4, !tbaa !10
  %18 = and i32 %17, 255
  %19 = trunc i32 %18 to i8
  %20 = load ptr, ptr %4, align 8, !tbaa !8
  %21 = getelementptr inbounds i8, ptr %20, i64 2
  store i8 %19, ptr %21, align 1, !tbaa !58
  ret void
}

; Function Attrs: inlinehint nounwind uwtable
define internal void @c16toa(i16 noundef zeroext %0, ptr noundef %1) #4 {
  %3 = alloca i16, align 2
  %4 = alloca ptr, align 8
  store i16 %0, ptr %3, align 2, !tbaa !66
  store ptr %1, ptr %4, align 8, !tbaa !8
  %5 = load i16, ptr %3, align 2, !tbaa !66
  %6 = zext i16 %5 to i32
  %7 = ashr i32 %6, 8
  %8 = and i32 %7, 255
  %9 = trunc i32 %8 to i8
  %10 = load ptr, ptr %4, align 8, !tbaa !8
  %11 = getelementptr inbounds i8, ptr %10, i64 0
  store i8 %9, ptr %11, align 1, !tbaa !58
  %12 = load i16, ptr %3, align 2, !tbaa !66
  %13 = zext i16 %12 to i32
  %14 = and i32 %13, 255
  %15 = trunc i32 %14 to i8
  %16 = load ptr, ptr %4, align 8, !tbaa !8
  %17 = getelementptr inbounds i8, ptr %16, i64 1
  store i8 %15, ptr %17, align 1, !tbaa !58
  ret void
}

; Function Attrs: nounwind uwtable
define internal void @AddTls13HandShakeHeader(ptr noundef %0, i32 noundef %1, i32 noundef %2, i32 noundef %3, i8 noundef zeroext %4, ptr noundef %5) #0 {
  %7 = alloca ptr, align 8
  %8 = alloca i32, align 4
  %9 = alloca i32, align 4
  %10 = alloca i32, align 4
  %11 = alloca i8, align 1
  %12 = alloca ptr, align 8
  %13 = alloca ptr, align 8
  store ptr %0, ptr %7, align 8, !tbaa !8
  store i32 %1, ptr %8, align 4, !tbaa !10
  store i32 %2, ptr %9, align 4, !tbaa !10
  store i32 %3, ptr %10, align 4, !tbaa !10
  store i8 %4, ptr %11, align 1, !tbaa !58
  store ptr %5, ptr %12, align 8, !tbaa !3
  call void @llvm.lifetime.start.p0(i64 8, ptr %13) #8
  %14 = load ptr, ptr %7, align 8, !tbaa !8
  store ptr %14, ptr %13, align 8, !tbaa !109
  %15 = load i8, ptr %11, align 1, !tbaa !58
  %16 = load ptr, ptr %13, align 8, !tbaa !109
  %17 = getelementptr inbounds nuw %struct.HandShakeHeader, ptr %16, i32 0, i32 0
  store i8 %15, ptr %17, align 1, !tbaa !111
  %18 = load i32, ptr %8, align 4, !tbaa !10
  %19 = load ptr, ptr %13, align 8, !tbaa !109
  %20 = getelementptr inbounds nuw %struct.HandShakeHeader, ptr %19, i32 0, i32 1
  %21 = getelementptr inbounds [3 x i8], ptr %20, i64 0, i64 0
  call void @c32to24(i32 noundef %18, ptr noundef %21)
  call void @llvm.lifetime.end.p0(i64 8, ptr %13) #8
  ret void
}

; Function Attrs: nounwind uwtable
define internal void @AddTls13RecordHeader(ptr noundef %0, i32 noundef %1, i8 noundef zeroext %2, ptr noundef %3) #0 {
  %5 = alloca ptr, align 8
  %6 = alloca i32, align 4
  %7 = alloca i8, align 1
  %8 = alloca ptr, align 8
  %9 = alloca ptr, align 8
  store ptr %0, ptr %5, align 8, !tbaa !8
  store i32 %1, ptr %6, align 4, !tbaa !10
  store i8 %2, ptr %7, align 1, !tbaa !58
  store ptr %3, ptr %8, align 8, !tbaa !3
  call void @llvm.lifetime.start.p0(i64 8, ptr %9) #8
  %10 = load ptr, ptr %5, align 8, !tbaa !8
  store ptr %10, ptr %9, align 8, !tbaa !83
  %11 = load i8, ptr %7, align 1, !tbaa !58
  %12 = load ptr, ptr %9, align 8, !tbaa !83
  %13 = getelementptr inbounds nuw %struct.RecordLayerHeader, ptr %12, i32 0, i32 0
  store i8 %11, ptr %13, align 1, !tbaa !85
  %14 = load ptr, ptr %8, align 8, !tbaa !3
  %15 = getelementptr inbounds nuw %struct.WOLFSSL, ptr %14, i32 0, i32 44
  %16 = getelementptr inbounds nuw %struct.ProtocolVersion, ptr %15, i32 0, i32 0
  %17 = load i8, ptr %16, align 2, !tbaa !86
  %18 = load ptr, ptr %9, align 8, !tbaa !83
  %19 = getelementptr inbounds nuw %struct.RecordLayerHeader, ptr %18, i32 0, i32 1
  store i8 %17, ptr %19, align 1, !tbaa !87
  %20 = load ptr, ptr %9, align 8, !tbaa !83
  %21 = getelementptr inbounds nuw %struct.RecordLayerHeader, ptr %20, i32 0, i32 2
  store i8 3, ptr %21, align 1, !tbaa !88
  %22 = load i32, ptr %6, align 4, !tbaa !10
  %23 = trunc i32 %22 to i16
  %24 = load ptr, ptr %9, align 8, !tbaa !83
  %25 = getelementptr inbounds nuw %struct.RecordLayerHeader, ptr %24, i32 0, i32 3
  %26 = getelementptr inbounds [2 x i8], ptr %25, i64 0, i64 0
  call void @c16toa(i16 noundef zeroext %23, ptr noundef %26)
  call void @llvm.lifetime.end.p0(i64 8, ptr %9) #8
  ret void
}

; Function Attrs: nounwind uwtable
define internal void @AddTls13Headers(ptr noundef %0, i32 noundef %1, i8 noundef zeroext %2, ptr noundef %3) #0 {
  %5 = alloca ptr, align 8
  %6 = alloca i32, align 4
  %7 = alloca i8, align 1
  %8 = alloca ptr, align 8
  %9 = alloca i32, align 4
  %10 = alloca i32, align 4
  store ptr %0, ptr %5, align 8, !tbaa !8
  store i32 %1, ptr %6, align 4, !tbaa !10
  store i8 %2, ptr %7, align 1, !tbaa !58
  store ptr %3, ptr %8, align 8, !tbaa !3
  call void @llvm.lifetime.start.p0(i64 4, ptr %9) #8
  store i32 4, ptr %9, align 4, !tbaa !10
  call void @llvm.lifetime.start.p0(i64 4, ptr %10) #8
  store i32 5, ptr %10, align 4, !tbaa !10
  %11 = load ptr, ptr %5, align 8, !tbaa !8
  %12 = load i32, ptr %6, align 4, !tbaa !10
  %13 = load i32, ptr %9, align 4, !tbaa !10
  %14 = add i32 %12, %13
  %15 = load ptr, ptr %8, align 8, !tbaa !3
  call void @AddTls13RecordHeader(ptr noundef %11, i32 noundef %14, i8 noundef zeroext 22, ptr noundef %15)
  %16 = load ptr, ptr %5, align 8, !tbaa !8
  %17 = load i32, ptr %10, align 4, !tbaa !10
  %18 = zext i32 %17 to i64
  %19 = getelementptr inbounds nuw i8, ptr %16, i64 %18
  %20 = load i32, ptr %6, align 4, !tbaa !10
  %21 = load i32, ptr %6, align 4, !tbaa !10
  %22 = load i8, ptr %7, align 1, !tbaa !58
  %23 = load ptr, ptr %8, align 8, !tbaa !3
  call void @AddTls13HandShakeHeader(ptr noundef %19, i32 noundef %20, i32 noundef 0, i32 noundef %21, i8 noundef zeroext %22, ptr noundef %23)
  call void @llvm.lifetime.end.p0(i64 4, ptr %10) #8
  call void @llvm.lifetime.end.p0(i64 4, ptr %9) #8
  ret void
}

; Function Attrs: nounwind uwtable
define i32 @SendTls13KeyUpdate(ptr noundef %0) #0 {
  %2 = alloca i32, align 4
  %3 = alloca ptr, align 8
  %4 = alloca ptr, align 8
  %5 = alloca ptr, align 8
  %6 = alloca i32, align 4
  %7 = alloca i32, align 4
  %8 = alloca i32, align 4
  %9 = alloca i32, align 4
  %10 = alloca i32, align 4
  %11 = alloca i32, align 4
  store ptr %0, ptr %3, align 8, !tbaa !3
  call void @llvm.lifetime.start.p0(i64 8, ptr %4) #8
  call void @llvm.lifetime.start.p0(i64 8, ptr %5) #8
  call void @llvm.lifetime.start.p0(i64 4, ptr %6) #8
  call void @llvm.lifetime.start.p0(i64 4, ptr %7) #8
  store i32 4, ptr %7, align 4, !tbaa !10
  call void @llvm.lifetime.start.p0(i64 4, ptr %8) #8
  call void @llvm.lifetime.start.p0(i64 4, ptr %9) #8
  store i32 9, ptr %9, align 4, !tbaa !10
  br label %12

12:                                               ; preds = %1
  br label %13

13:                                               ; preds = %12
  br label %14

14:                                               ; preds = %13
  br label %15

15:                                               ; preds = %14
  br label %16

16:                                               ; preds = %15
  br label %17

17:                                               ; preds = %16
  store i32 103, ptr %8, align 4, !tbaa !10
  %18 = load ptr, ptr %3, align 8, !tbaa !3
  %19 = load i32, ptr %8, align 4, !tbaa !10
  %20 = call i32 @CheckAvailableSize(ptr noundef %18, i32 noundef %19)
  store i32 %20, ptr %6, align 4, !tbaa !10
  %21 = icmp ne i32 %20, 0
  br i1 %21, label %22, label %24

22:                                               ; preds = %17
  %23 = load i32, ptr %6, align 4, !tbaa !10
  store i32 %23, ptr %2, align 4
  store i32 1, ptr %10, align 4
  br label %118

24:                                               ; preds = %17
  %25 = load ptr, ptr %3, align 8, !tbaa !3
  %26 = call ptr @GetOutputBuffer(ptr noundef %25)
  store ptr %26, ptr %5, align 8, !tbaa !8
  %27 = load ptr, ptr %5, align 8, !tbaa !8
  %28 = getelementptr inbounds i8, ptr %27, i64 5
  store ptr %28, ptr %4, align 8, !tbaa !8
  %29 = load ptr, ptr %5, align 8, !tbaa !8
  %30 = load ptr, ptr %3, align 8, !tbaa !3
  call void @AddTls13Headers(ptr noundef %29, i32 noundef 1, i8 noundef zeroext 24, ptr noundef %30)
  %31 = load ptr, ptr %3, align 8, !tbaa !3
  %32 = getelementptr inbounds nuw %struct.WOLFSSL, ptr %31, i32 0, i32 48
  %33 = getelementptr inbounds nuw %struct.Keys, ptr %32, i32 0, i32 17
  %34 = load i8, ptr %33, align 2, !tbaa !161
  %35 = icmp ne i8 %34, 0
  br i1 %35, label %43, label %36

36:                                               ; preds = %24
  %37 = load ptr, ptr %3, align 8, !tbaa !3
  %38 = getelementptr inbounds nuw %struct.WOLFSSL, ptr %37, i32 0, i32 48
  %39 = getelementptr inbounds nuw %struct.Keys, ptr %38, i32 0, i32 18
  %40 = load i8, ptr %39, align 1, !tbaa !162
  %41 = icmp ne i8 %40, 0
  %42 = xor i1 %41, true
  br label %43

43:                                               ; preds = %36, %24
  %44 = phi i1 [ false, %24 ], [ %42, %36 ]
  %45 = zext i1 %44 to i32
  %46 = trunc i32 %45 to i8
  %47 = load ptr, ptr %5, align 8, !tbaa !8
  %48 = load i32, ptr %9, align 4, !tbaa !10
  %49 = add i32 %48, 1
  store i32 %49, ptr %9, align 4, !tbaa !10
  %50 = zext i32 %48 to i64
  %51 = getelementptr inbounds nuw i8, ptr %47, i64 %50
  store i8 %46, ptr %51, align 1, !tbaa !58
  %52 = load ptr, ptr %3, align 8, !tbaa !3
  %53 = getelementptr inbounds nuw %struct.WOLFSSL, ptr %52, i32 0, i32 48
  %54 = getelementptr inbounds nuw %struct.Keys, ptr %53, i32 0, i32 17
  store i8 %46, ptr %54, align 2, !tbaa !161
  %55 = load ptr, ptr %3, align 8, !tbaa !3
  %56 = getelementptr inbounds nuw %struct.WOLFSSL, ptr %55, i32 0, i32 48
  %57 = getelementptr inbounds nuw %struct.Keys, ptr %56, i32 0, i32 18
  store i8 0, ptr %57, align 1, !tbaa !162
  call void @llvm.lifetime.start.p0(i64 4, ptr %11) #8
  %58 = load ptr, ptr %3, align 8, !tbaa !3
  %59 = load ptr, ptr %5, align 8, !tbaa !8
  %60 = load i32, ptr %8, align 4, !tbaa !10
  %61 = load ptr, ptr %4, align 8, !tbaa !8
  %62 = load i32, ptr %7, align 4, !tbaa !10
  %63 = add nsw i32 %62, 1
  %64 = call i32 @BuildTls13Message(ptr noundef %58, ptr noundef %59, i32 noundef %60, ptr noundef %61, i32 noundef %63, i32 noundef 22, i32 noundef 0, i32 noundef 0, i32 noundef 0)
  store i32 %64, ptr %11, align 4, !tbaa !10
  %65 = load i32, ptr %11, align 4, !tbaa !10
  %66 = icmp slt i32 %65, 0
  br i1 %66, label %67, label %68

67:                                               ; preds = %43
  store i32 -320, ptr %2, align 4
  store i32 1, ptr %10, align 4
  br label %86

68:                                               ; preds = %43
  %69 = load i32, ptr %11, align 4, !tbaa !10
  %70 = load ptr, ptr %3, align 8, !tbaa !3
  %71 = getelementptr inbounds nuw %struct.WOLFSSL, ptr %70, i32 0, i32 26
  %72 = getelementptr inbounds nuw %struct.Buffers, ptr %71, i32 0, i32 1
  %73 = getelementptr inbounds nuw %struct.bufferStatic, ptr %72, i32 0, i32 2
  %74 = load i32, ptr %73, align 16, !tbaa !124
  %75 = add i32 %74, %69
  store i32 %75, ptr %73, align 16, !tbaa !124
  %76 = load ptr, ptr %3, align 8, !tbaa !3
  %77 = call i32 @SendBuffered(ptr noundef %76)
  store i32 %77, ptr %6, align 4, !tbaa !10
  %78 = load i32, ptr %6, align 4, !tbaa !10
  %79 = icmp ne i32 %78, 0
  br i1 %79, label %80, label %85

80:                                               ; preds = %68
  %81 = load i32, ptr %6, align 4, !tbaa !10
  %82 = icmp ne i32 %81, -327
  br i1 %82, label %83, label %85

83:                                               ; preds = %80
  %84 = load i32, ptr %6, align 4, !tbaa !10
  store i32 %84, ptr %2, align 4
  store i32 1, ptr %10, align 4
  br label %86

85:                                               ; preds = %80, %68
  store i32 0, ptr %10, align 4
  br label %86

86:                                               ; preds = %85, %83, %67
  call void @llvm.lifetime.end.p0(i64 4, ptr %11) #8
  %87 = load i32, ptr %10, align 4
  switch i32 %87, label %118 [
    i32 0, label %88
  ]

88:                                               ; preds = %86
  %89 = load ptr, ptr %3, align 8, !tbaa !3
  %90 = getelementptr inbounds nuw %struct.WOLFSSL, ptr %89, i32 0, i32 49
  %91 = getelementptr inbounds nuw %struct.Options, ptr %90, i32 0, i32 1
  %92 = load i64, ptr %91, align 8
  %93 = lshr i64 %92, 17
  %94 = and i64 %93, 1
  %95 = trunc i64 %94 to i16
  %96 = icmp ne i16 %95, 0
  br i1 %96, label %110, label %97

97:                                               ; preds = %88
  %98 = load ptr, ptr %3, align 8, !tbaa !3
  %99 = call i32 @DeriveTls13Keys(ptr noundef %98, i32 noundef 4, i32 noundef 1, i32 noundef 1)
  store i32 %99, ptr %6, align 4, !tbaa !10
  %100 = icmp ne i32 %99, 0
  br i1 %100, label %101, label %103

101:                                              ; preds = %97
  %102 = load i32, ptr %6, align 4, !tbaa !10
  store i32 %102, ptr %2, align 4
  store i32 1, ptr %10, align 4
  br label %118

103:                                              ; preds = %97
  %104 = load ptr, ptr %3, align 8, !tbaa !3
  %105 = call i32 @SetKeysSide(ptr noundef %104, i32 noundef 1)
  store i32 %105, ptr %6, align 4, !tbaa !10
  %106 = icmp ne i32 %105, 0
  br i1 %106, label %107, label %109

107:                                              ; preds = %103
  %108 = load i32, ptr %6, align 4, !tbaa !10
  store i32 %108, ptr %2, align 4
  store i32 1, ptr %10, align 4
  br label %118

109:                                              ; preds = %103
  br label %110

110:                                              ; preds = %109, %88
  br label %111

111:                                              ; preds = %110
  br label %112

112:                                              ; preds = %111
  br label %113

113:                                              ; preds = %112
  br label %114

114:                                              ; preds = %113
  br label %115

115:                                              ; preds = %114
  br label %116

116:                                              ; preds = %115
  %117 = load i32, ptr %6, align 4, !tbaa !10
  store i32 %117, ptr %2, align 4
  store i32 1, ptr %10, align 4
  br label %118

118:                                              ; preds = %116, %107, %101, %86, %22
  call void @llvm.lifetime.end.p0(i64 4, ptr %9) #8
  call void @llvm.lifetime.end.p0(i64 4, ptr %8) #8
  call void @llvm.lifetime.end.p0(i64 4, ptr %7) #8
  call void @llvm.lifetime.end.p0(i64 4, ptr %6) #8
  call void @llvm.lifetime.end.p0(i64 8, ptr %5) #8
  call void @llvm.lifetime.end.p0(i64 8, ptr %4) #8
  %119 = load i32, ptr %2, align 4
  ret i32 %119
}