; Function Attrs: nounwind uwtable
define i32 @SendTls13KeyUpdate(ptr noundef %0) local_unnamed_addr #0 {
  %2 = tail call i32 @CheckAvailableSize(ptr noundef %0, i32 noundef 103) #11
  %.not = icmp eq i32 %2, 0
  br i1 %.not, label %3, label %.thread

3:                                                ; preds = %1
  %4 = tail call ptr @GetOutputBuffer(ptr noundef %0) #11
  %5 = getelementptr inbounds nuw i8, ptr %4, i64 5
  %6 = getelementptr i8, ptr %0, i64 710
  %.val = load i8, ptr %6, align 2, !tbaa !73
  store i8 22, ptr %4, align 1, !tbaa !74
  %7 = getelementptr inbounds nuw i8, ptr %4, i64 1
  store i8 %.val, ptr %7, align 1, !tbaa !75
  %8 = getelementptr inbounds nuw i8, ptr %4, i64 2
  store i8 3, ptr %8, align 1, !tbaa !76
  %9 = getelementptr inbounds nuw i8, ptr %4, i64 3
  store i8 0, ptr %9, align 1, !tbaa !57
  %10 = getelementptr inbounds nuw i8, ptr %4, i64 4
  store i8 5, ptr %10, align 1, !tbaa !57
  store i8 24, ptr %5, align 1, !tbaa !103
  %11 = getelementptr inbounds nuw i8, ptr %4, i64 6
  store i8 0, ptr %11, align 1, !tbaa !57
  %12 = getelementptr inbounds nuw i8, ptr %4, i64 7
  store i8 0, ptr %12, align 1, !tbaa !57
  %13 = getelementptr inbounds nuw i8, ptr %4, i64 8
  store i8 1, ptr %13, align 1, !tbaa !57
  %14 = getelementptr inbounds nuw i8, ptr %0, i64 1014
  %15 = load i8, ptr %14, align 2, !tbaa !125
  %.not43 = icmp eq i8 %15, 0
  br i1 %.not43, label %16, label %20

16:                                               ; preds = %3
  %17 = getelementptr inbounds nuw i8, ptr %0, i64 1015
  %18 = load i8, ptr %17, align 1, !tbaa !126
  %.not44 = icmp eq i8 %18, 0
  %19 = zext i1 %.not44 to i8
  br label %20

20:                                               ; preds = %16, %3
  %21 = phi i8 [ 0, %3 ], [ %19, %16 ]
  %22 = getelementptr inbounds nuw i8, ptr %4, i64 9
  store i8 %21, ptr %22, align 1, !tbaa !57
  store i8 %21, ptr %14, align 2, !tbaa !125
  %23 = getelementptr inbounds nuw i8, ptr %0, i64 1015
  store i8 0, ptr %23, align 1, !tbaa !126
  %24 = tail call i32 @BuildTls13Message(ptr noundef nonnull %0, ptr noundef nonnull %4, i32 noundef 103, ptr noundef nonnull %5, i32 noundef 5, i32 noundef 22, i32 noundef 0, i32 noundef 0, i32 poison)
  %25 = icmp slt i32 %24, 0
  br i1 %25, label %.thread, label %26

26:                                               ; preds = %20
  %27 = getelementptr inbounds nuw i8, ptr %0, i64 400
  %28 = load i32, ptr %27, align 16, !tbaa !108
  %29 = add i32 %28, %24
  store i32 %29, ptr %27, align 16, !tbaa !108
  %30 = tail call i32 @SendBuffered(ptr noundef nonnull %0) #11
  switch i32 %30, label %.thread [
    i32 -327, label %31
    i32 0, label %31
  ]

31:                                               ; preds = %26, %26
  %32 = getelementptr inbounds nuw i8, ptr %0, i64 1024
  %33 = load i64, ptr %32, align 8
  %34 = and i64 %33, 131072
  %.not45 = icmp eq i64 %34, 0
  br i1 %.not45, label %35, label %.thread

35:                                               ; preds = %31
  %36 = tail call i32 @DeriveTls13Keys(ptr noundef nonnull %0, i32 noundef 4, i32 noundef 1, i32 noundef 1)
  %.not46 = icmp eq i32 %36, 0
  br i1 %.not46, label %37, label %.thread

37:                                               ; preds = %35
  %38 = tail call i32 @SetKeysSide(ptr noundef nonnull %0, i32 noundef 1) #11
  br label %.thread

.thread:                                          ; preds = %26, %20, %37, %31, %35, %1
  %.0 = phi i32 [ %2, %1 ], [ %36, %35 ], [ %30, %31 ], [ %38, %37 ], [ %30, %26 ], [ -320, %20 ]
  ret i32 %.0
}